target datalayout = "e-m:e-p270:32:32-p271:32:32-p272:64:64-i64:64-i128:128-f80:128-n8:16:32:64-S128"
target triple = "x86_64-pc-linux-gnu"

%struct.ResourceOwnerDesc = type { ptr, i32, i32, ptr, ptr }
%struct.nameData = type { [64 x i8] }
%struct.RelationData = type { %struct.RelFileLocator, ptr, i32, i32, i8, i8, i8, i8, i8, i32, i32, i32, i32, ptr, ptr, i32, %struct.LockInfoData, ptr, ptr, ptr, ptr, ptr, i8, ptr, ptr, ptr, ptr, ptr, ptr, i32, ptr, i8, ptr, ptr, i32, i8, i32, ptr, i8, ptr, ptr, ptr, ptr, ptr, ptr, ptr, i32, ptr, ptr, ptr, ptr, ptr, ptr, ptr, ptr, ptr, ptr, ptr, ptr, ptr, ptr, ptr, ptr, ptr, ptr, ptr, i32, i8, ptr }
%struct.RelFileLocator = type { i32, i32, i32 }
%struct.LockInfoData = type { %struct.LockRelId }
%struct.LockRelId = type { i32, i32 }
%struct.FormData_pg_class = type { i32, %struct.nameData, i32, i32, i32, i32, i32, i32, i32, i32, float, i32, i32, i8, i8, i8, i8, i16, i16, i8, i8, i8, i8, i8, i8, i8, i8, i32, i32, i32 }
%struct.FormData_pg_index = type { i32, i32, i16, i16, i8, i8, i8, i8, i8, i8, i8, i8, i8, i8, i8, %struct.int2vector }
%struct.int2vector = type { i32, i32, i32, i32, i32, i32, [0 x i16] }
%struct.MemoryContextData = type { i32, i8, i8, i64, ptr, ptr, ptr, ptr, ptr, ptr, ptr, ptr }

@.str.1 = private unnamed_addr constant [11 x i8] c"relcache.c\00", align 1
@CacheMemoryContext = external global ptr, align 8
@CurrentResourceOwner = external global ptr, align 8
@Mode = external global i32, align 4
@.str.27 = private unnamed_addr constant [36 x i8] c"could not open relation with OID %u\00", align 1
@__func__.RelationGetIdentityKeyBitmap = private unnamed_addr constant [29 x i8] c"RelationGetIdentityKeyBitmap\00", align 1
@CurrentMemoryContext = external global ptr, align 8
@relref_resowner_desc = internal constant %struct.ResourceOwnerDesc { ptr @.str.57, i32 1, i32 300, ptr @ResOwnerReleaseRelation, ptr @ResOwnerPrintRelCache }, align 8

; Function Attrs: inlinehint nounwind uwtable
define internal i64 @PointerGetDatum(ptr noundef %0) #3 {
  %2 = alloca ptr, align 8
  store ptr %0, ptr %2, align 8
  %3 = load ptr, ptr %2, align 8
  %4 = ptrtoint ptr %3 to i64
  ret i64 %4
}

; Function Attrs: inlinehint nounwind uwtable
define internal void @ResourceOwnerForgetRelationRef(ptr noundef %0, ptr noundef %1) #3 {
  %3 = alloca ptr, align 8
  %4 = alloca ptr, align 8
  store ptr %0, ptr %3, align 8
  store ptr %1, ptr %4, align 8
  %5 = load ptr, ptr %3, align 8
  %6 = load ptr, ptr %4, align 8
  %7 = call i64 @PointerGetDatum(ptr noundef %6)
  call void @ResourceOwnerForget(ptr noundef %5, i64 noundef %7, ptr noundef @relref_resowner_desc)
  ret void
}

; Function Attrs: nounwind uwtable
define internal void @RelationCloseCleanup(ptr noundef %0) #0 {
  %2 = alloca ptr, align 8
  store ptr %0, ptr %2, align 8
  %3 = load ptr, ptr %2, align 8
  %4 = getelementptr inbounds nuw %struct.RelationData, ptr %3, i32 0, i32 2
  %5 = load i32, ptr %4, align 8
  %6 = icmp eq i32 %5, 0
  br i1 %6, label %7, label %40

7:                                                ; preds = %1
  %8 = load ptr, ptr %2, align 8
  %9 = getelementptr inbounds nuw %struct.RelationData, ptr %8, i32 0, i32 26
  %10 = load ptr, ptr %9, align 8
  %11 = icmp ne ptr %10, null
  br i1 %11, label %12, label %23

12:                                               ; preds = %7
  %13 = load ptr, ptr %2, align 8
  %14 = getelementptr inbounds nuw %struct.RelationData, ptr %13, i32 0, i32 26
  %15 = load ptr, ptr %14, align 8
  %16 = getelementptr inbounds nuw %struct.MemoryContextData, ptr %15, i32 0, i32 6
  %17 = load ptr, ptr %16, align 8
  %18 = icmp ne ptr %17, null
  br i1 %18, label %19, label %23

19:                                               ; preds = %12
  %20 = load ptr, ptr %2, align 8
  %21 = getelementptr inbounds nuw %struct.RelationData, ptr %20, i32 0, i32 26
  %22 = load ptr, ptr %21, align 8
  call void @MemoryContextDeleteChildren(ptr noundef %22)
  br label %23

23:                                               ; preds = %19, %12, %7
  %24 = load ptr, ptr %2, align 8
  %25 = getelementptr inbounds nuw %struct.RelationData, ptr %24, i32 0, i32 28
  %26 = load ptr, ptr %25, align 8
  %27 = icmp ne ptr %26, null
  br i1 %27, label %28, label %39

28:                                               ; preds = %23
  %29 = load ptr, ptr %2, align 8
  %30 = getelementptr inbounds nuw %struct.RelationData, ptr %29, i32 0, i32 28
  %31 = load ptr, ptr %30, align 8
  %32 = getelementptr inbounds nuw %struct.MemoryContextData, ptr %31, i32 0, i32 6
  %33 = load ptr, ptr %32, align 8
  %34 = icmp ne ptr %33, null
  br i1 %34, label %35, label %39

35:                                               ; preds = %28
  %36 = load ptr, ptr %2, align 8
  %37 = getelementptr inbounds nuw %struct.RelationData, ptr %36, i32 0, i32 28
  %38 = load ptr, ptr %37, align 8
  call void @MemoryContextDeleteChildren(ptr noundef %38)
  br label %39

39:                                               ; preds = %35, %28, %23
  br label %40

40:                                               ; preds = %39, %1
  ret void
}

; Function Attrs: nounwind uwtable
define dso_local void @RelationDecrementReferenceCount(ptr noundef %0) #0 {
  %2 = alloca ptr, align 8
  store ptr %0, ptr %2, align 8
  %3 = load ptr, ptr %2, align 8
  %4 = getelementptr inbounds nuw %struct.RelationData, ptr %3, i32 0, i32 2
  %5 = load i32, ptr %4, align 8
  %6 = sub i32 %5, 1
  store i32 %6, ptr %4, align 8
  %7 = load i32, ptr @Mode, align 4
  %8 = icmp eq i32 %7, 0
  br i1 %8, label %12, label %9

9:                                                ; preds = %1
  %10 = load ptr, ptr @CurrentResourceOwner, align 8
  %11 = load ptr, ptr %2, align 8
  call void @ResourceOwnerForgetRelationRef(ptr noundef %10, ptr noundef %11)
  br label %12

12:                                               ; preds = %9, %1
  ret void
}

; Function Attrs: inlinehint nounwind uwtable
define internal ptr @MemoryContextSwitchTo(ptr noundef %0) #3 {
  %2 = alloca ptr, align 8
  %3 = alloca ptr, align 8
  store ptr %0, ptr %2, align 8
  call void @llvm.lifetime.start.p0(i64 8, ptr %3) #11
  %4 = load ptr, ptr @CurrentMemoryContext, align 8
  store ptr %4, ptr %3, align 8
  %5 = load ptr, ptr %2, align 8
  store ptr %5, ptr @CurrentMemoryContext, align 8
  %6 = load ptr, ptr %3, align 8
  call void @llvm.lifetime.end.p0(i64 8, ptr %3) #11
  ret ptr %6
}

; Function Attrs: nounwind uwtable
define dso_local void @RelationClose(ptr noundef %0) #0 {
  %2 = alloca ptr, align 8
  store ptr %0, ptr %2, align 8
  %3 = load ptr, ptr %2, align 8
  call void @RelationDecrementReferenceCount(ptr noundef %3)
  %4 = load ptr, ptr %2, align 8
  call void @RelationCloseCleanup(ptr noundef %4)
  ret void
}

; Function Attrs: nounwind uwtable
define dso_local i32 @RelationGetReplicaIndex(ptr noundef %0) #0 {
  %2 = alloca ptr, align 8
  %3 = alloca ptr, align 8
  store ptr %0, ptr %2, align 8
  call void @llvm.lifetime.start.p0(i64 8, ptr %3) #11
  %4 = load ptr, ptr %2, align 8
  %5 = getelementptr inbounds nuw %struct.RelationData, ptr %4, i32 0, i32 7
  %6 = load i8, ptr %5, align 1, !range !4, !noundef !5
  %7 = trunc i8 %6 to i1
  br i1 %7, label %12, label %8

8:                                                ; preds = %1
  %9 = load ptr, ptr %2, align 8
  %10 = call ptr @RelationGetIndexList(ptr noundef %9)
  store ptr %10, ptr %3, align 8
  %11 = load ptr, ptr %3, align 8
  call void @list_free(ptr noundef %11)
  br label %12

12:                                               ; preds = %8, %1
  %13 = load ptr, ptr %2, align 8
  %14 = getelementptr inbounds nuw %struct.RelationData, ptr %13, i32 0, i32 36
  %15 = load i32, ptr %14, align 8
  call void @llvm.lifetime.end.p0(i64 8, ptr %3) #11
  ret i32 %15
}

; Function Attrs: nounwind uwtable
define dso_local ptr @RelationGetIdentityKeyBitmap(ptr noundef %0) #0 {
  %2 = alloca ptr, align 8
  %3 = alloca ptr, align 8
  %4 = alloca ptr, align 8
  %5 = alloca ptr, align 8
  %6 = alloca i32, align 4
  %7 = alloca i32, align 4
  %8 = alloca ptr, align 8
  %9 = alloca i32, align 4
  %10 = alloca i32, align 4
  store ptr %0, ptr %3, align 8
  call void @llvm.lifetime.start.p0(i64 8, ptr %4) #11
  store ptr null, ptr %4, align 8
  call void @llvm.lifetime.start.p0(i64 8, ptr %5) #11
  call void @llvm.lifetime.start.p0(i64 4, ptr %6) #11
  call void @llvm.lifetime.start.p0(i64 4, ptr %7) #11
  call void @llvm.lifetime.start.p0(i64 8, ptr %8) #11
  %11 = load ptr, ptr %3, align 8
  %12 = getelementptr inbounds nuw %struct.RelationData, ptr %11, i32 0, i32 41
  %13 = load ptr, ptr %12, align 8
  %14 = icmp ne ptr %13, null
  br i1 %14, label %15, label %20

15:                                               ; preds = %1
  %16 = load ptr, ptr %3, align 8
  %17 = getelementptr inbounds nuw %struct.RelationData, ptr %16, i32 0, i32 41
  %18 = load ptr, ptr %17, align 8
  %19 = call ptr @bms_copy(ptr noundef %18)
  store ptr %19, ptr %2, align 8
  store i32 1, ptr %9, align 4
  br label %111

20:                                               ; preds = %1
  %21 = load ptr, ptr %3, align 8
  %22 = getelementptr inbounds nuw %struct.RelationData, ptr %21, i32 0, i32 13
  %23 = load ptr, ptr %22, align 8
  %24 = getelementptr inbounds nuw %struct.FormData_pg_class, ptr %23, i32 0, i32 13
  %25 = load i8, ptr %24, align 4, !range !4, !noundef !5
  %26 = trunc i8 %25 to i1
  br i1 %26, label %28, label %27

27:                                               ; preds = %20
  store ptr null, ptr %2, align 8
  store i32 1, ptr %9, align 4
  br label %111

28:                                               ; preds = %20
  %29 = load ptr, ptr %3, align 8
  %30 = call i32 @RelationGetReplicaIndex(ptr noundef %29)
  store i32 %30, ptr %7, align 4
  %31 = load i32, ptr %7, align 4
  %32 = icmp ne i32 %31, 0
  br i1 %32, label %34, label %33

33:                                               ; preds = %28
  store ptr null, ptr %2, align 8
  store i32 1, ptr %9, align 4
  br label %111

34:                                               ; preds = %28
  %35 = load i32, ptr %7, align 4
  %36 = call ptr @RelationIdGetRelation(i32 noundef %35)
  store ptr %36, ptr %5, align 8
  %37 = load ptr, ptr %5, align 8
  %38 = icmp ne ptr %37, null
  br i1 %38, label %53, label %39

39:                                               ; preds = %34
  br label %40

40:                                               ; preds = %39
  br i1 true, label %41, label %43

41:                                               ; preds = %40
  %42 = call zeroext i1 @errstart_cold(i32 noundef 21, ptr noundef null) #12
  br i1 %42, label %45, label %50

43:                                               ; preds = %40
  %44 = call zeroext i1 @errstart(i32 noundef 21, ptr noundef null)
  br i1 %44, label %45, label %50

45:                                               ; preds = %43, %41
  %46 = load ptr, ptr %3, align 8
  %47 = getelementptr inbounds nuw %struct.RelationData, ptr %46, i32 0, i32 36
  %48 = load i32, ptr %47, align 8
  %49 = call i32 (ptr, ...) @errmsg_internal(ptr noundef @.str.27, i32 noundef %48)
  call void @errfinish(ptr noundef @.str.1, i32 noundef 5529, ptr noundef @__func__.RelationGetIdentityKeyBitmap)
  br label %50

50:                                               ; preds = %45, %43, %41
  unreachable

51:                                               ; No predecessors!
  br label %52

52:                                               ; preds = %51
  br label %53

53:                                               ; preds = %52, %34
  store i32 0, ptr %6, align 4
  br label %54

54:                                               ; preds = %92, %53
  %55 = load i32, ptr %6, align 4
  %56 = load ptr, ptr %5, align 8
  %57 = getelementptr inbounds nuw %struct.RelationData, ptr %56, i32 0, i32 48
  %58 = load ptr, ptr %57, align 8
  %59 = getelementptr inbounds nuw %struct.FormData_pg_index, ptr %58, i32 0, i32 2
  %60 = load i16, ptr %59, align 4
  %61 = sext i16 %60 to i32
  %62 = icmp slt i32 %55, %61
  br i1 %62, label %63, label %95

63:                                               ; preds = %54
  call void @llvm.lifetime.start.p0(i64 4, ptr %10) #11
  %64 = load ptr, ptr %5, align 8
  %65 = getelementptr inbounds nuw %struct.RelationData, ptr %64, i32 0, i32 48
  %66 = load ptr, ptr %65, align 8
  %67 = getelementptr inbounds nuw %struct.FormData_pg_index, ptr %66, i32 0, i32 15
  %68 = getelementptr inbounds nuw %struct.int2vector, ptr %67, i32 0, i32 6
  %69 = load i32, ptr %6, align 4
  %70 = sext i32 %69 to i64
  %71 = getelementptr inbounds [0 x i16], ptr %68, i64 0, i64 %70
  %72 = load i16, ptr %71, align 2
  %73 = sext i16 %72 to i32
  store i32 %73, ptr %10, align 4
  %74 = load i32, ptr %10, align 4
  %75 = icmp ne i32 %74, 0
  br i1 %75, label %76, label %91

76:                                               ; preds = %63
  %77 = load i32, ptr %6, align 4
  %78 = load ptr, ptr %5, align 8
  %79 = getelementptr inbounds nuw %struct.RelationData, ptr %78, i32 0, i32 48
  %80 = load ptr, ptr %79, align 8
  %81 = getelementptr inbounds nuw %struct.FormData_pg_index, ptr %80, i32 0, i32 3
  %82 = load i16, ptr %81, align 2
  %83 = sext i16 %82 to i32
  %84 = icmp slt i32 %77, %83
  br i1 %84, label %85, label %90

85:                                               ; preds = %76
  %86 = load ptr, ptr %4, align 8
  %87 = load i32, ptr %10, align 4
  %88 = sub i32 %87, -7
  %89 = call ptr @bms_add_member(ptr noundef %86, i32 noundef %88)
  store ptr %89, ptr %4, align 8
  br label %90

90:                                               ; preds = %85, %76
  br label %91

91:                                               ; preds = %90, %63
  call void @llvm.lifetime.end.p0(i64 4, ptr %10) #11
  br label %92

92:                                               ; preds = %91
  %93 = load i32, ptr %6, align 4
  %94 = add i32 %93, 1
  store i32 %94, ptr %6, align 4
  br label %54, !llvm.loop !37

95:                                               ; preds = %54
  %96 = load ptr, ptr %5, align 8
  call void @RelationClose(ptr noundef %96)
  %97 = load ptr, ptr %3, align 8
  %98 = getelementptr inbounds nuw %struct.RelationData, ptr %97, i32 0, i32 41
  %99 = load ptr, ptr %98, align 8
  call void @bms_free(ptr noundef %99)
  %100 = load ptr, ptr %3, align 8
  %101 = getelementptr inbounds nuw %struct.RelationData, ptr %100, i32 0, i32 41
  store ptr null, ptr %101, align 8
  %102 = load ptr, ptr @CacheMemoryContext, align 8
  %103 = call ptr @MemoryContextSwitchTo(ptr noundef %102)
  store ptr %103, ptr %8, align 8
  %104 = load ptr, ptr %4, align 8
  %105 = call ptr @bms_copy(ptr noundef %104)
  %106 = load ptr, ptr %3, align 8
  %107 = getelementptr inbounds nuw %struct.RelationData, ptr %106, i32 0, i32 41
  store ptr %105, ptr %107, align 8
  %108 = load ptr, ptr %8, align 8
  %109 = call ptr @MemoryContextSwitchTo(ptr noundef %108)
  %110 = load ptr, ptr %4, align 8
  store ptr %110, ptr %2, align 8
  store i32 1, ptr %9, align 4
  br label %111

111:                                              ; preds = %95, %33, %27, %15
  call void @llvm.lifetime.end.p0(i64 8, ptr %8) #11
  call void @llvm.lifetime.end.p0(i64 4, ptr %7) #11
  call void @llvm.lifetime.end.p0(i64 4, ptr %6) #11
  call void @llvm.lifetime.end.p0(i64 8, ptr %5) #11
  call void @llvm.lifetime.end.p0(i64 8, ptr %4) #11
  %112 = load ptr, ptr %2, align 8
  ret ptr %112
}