; Function Attrs: nounwind uwtable
define dso_local ptr @RelationGetIdentityKeyBitmap(ptr noundef captures(none) %0) local_unnamed_addr #0 {
  %2 = getelementptr inbounds nuw i8, ptr %0, i64 272
  %3 = load ptr, ptr %2, align 8
  %.not = icmp eq ptr %3, null
  br i1 %.not, label %6, label %4

4:                                                ; preds = %1
  %5 = tail call ptr @bms_copy(ptr noundef nonnull %3) #13
  br label %78

6:                                                ; preds = %1
  %7 = getelementptr inbounds nuw i8, ptr %0, i64 56
  %8 = load ptr, ptr %7, align 8
  %9 = getelementptr inbounds nuw i8, ptr %8, i64 112
  %10 = load i8, ptr %9, align 4, !range !6, !noundef !7
  %11 = trunc nuw i8 %10 to i1
  br i1 %11, label %12, label %78

12:                                               ; preds = %6
  %13 = getelementptr inbounds nuw i8, ptr %0, i64 35
  %14 = load i8, ptr %13, align 1, !range !6, !noundef !7
  %15 = trunc nuw i8 %14 to i1
  br i1 %15, label %RelationGetReplicaIndex.exit, label %16

16:                                               ; preds = %12
  %17 = tail call ptr @RelationGetIndexList(ptr noundef nonnull %0)
  tail call void @list_free(ptr noundef %17) #13
  br label %RelationGetReplicaIndex.exit

RelationGetReplicaIndex.exit:                     ; preds = %12, %16
  %18 = getelementptr inbounds nuw i8, ptr %0, i64 232
  %19 = load i32, ptr %18, align 8
  %.not31 = icmp eq i32 %19, 0
  br i1 %.not31, label %78, label %20

20:                                               ; preds = %RelationGetReplicaIndex.exit
  %21 = tail call ptr @RelationIdGetRelation(i32 noundef %19)
  %.not32 = icmp eq ptr %21, null
  br i1 %.not32, label %27, label %.preheader

.preheader:                                       ; preds = %20
  %22 = getelementptr inbounds nuw i8, ptr %21, i64 328
  %23 = load ptr, ptr %22, align 8
  %24 = getelementptr inbounds nuw i8, ptr %23, i64 8
  %25 = load i16, ptr %24, align 4
  %26 = icmp sgt i16 %25, 0
  br i1 %26, label %.lr.ph, label %._crit_edge

27:                                               ; preds = %20
  %28 = tail call zeroext i1 @errstart_cold(i32 noundef 21, ptr noundef null) #14
  tail call void @llvm.assume(i1 %28)
  %29 = load i32, ptr %18, align 8
  %30 = tail call i32 (ptr, ...) @errmsg_internal(ptr noundef nonnull @.str.27, i32 noundef %29) #13
  tail call void @errfinish(ptr noundef nonnull @.str.1, i32 noundef 5529, ptr noundef nonnull @__func__.RelationGetIdentityKeyBitmap) #13
  unreachable

.lr.ph:                                           ; preds = %.preheader, %44
  %31 = phi ptr [ %45, %44 ], [ %23, %.preheader ]
  %indvars.iv = phi i64 [ %indvars.iv.next, %44 ], [ 0, %.preheader ]
  %.02535 = phi ptr [ %.1, %44 ], [ null, %.preheader ]
  %32 = getelementptr inbounds nuw i8, ptr %31, i64 48
  %33 = getelementptr inbounds nuw [0 x i16], ptr %32, i64 0, i64 %indvars.iv
  %34 = load i16, ptr %33, align 2
  %35 = sext i16 %34 to i32
  %.not33 = icmp eq i16 %34, 0
  br i1 %.not33, label %44, label %36

36:                                               ; preds = %.lr.ph
  %37 = getelementptr inbounds nuw i8, ptr %31, i64 10
  %38 = load i16, ptr %37, align 2
  %39 = sext i16 %38 to i64
  %40 = icmp slt i64 %indvars.iv, %39
  br i1 %40, label %41, label %44

41:                                               ; preds = %36
  %42 = add nsw i32 %35, 7
  %43 = tail call ptr @bms_add_member(ptr noundef %.02535, i32 noundef %42) #13
  %.pre = load ptr, ptr %22, align 8
  br label %44

44:                                               ; preds = %36, %41, %.lr.ph
  %45 = phi ptr [ %.pre, %41 ], [ %31, %36 ], [ %31, %.lr.ph ]
  %.1 = phi ptr [ %43, %41 ], [ %.02535, %36 ], [ %.02535, %.lr.ph ]
  %indvars.iv.next = add nuw nsw i64 %indvars.iv, 1
  %46 = getelementptr inbounds nuw i8, ptr %45, i64 8
  %47 = load i16, ptr %46, align 4
  %48 = sext i16 %47 to i64
  %49 = icmp slt i64 %indvars.iv.next, %48
  br i1 %49, label %.lr.ph, label %._crit_edge, !llvm.loop !42

._crit_edge:                                      ; preds = %44, %.preheader
  %.025.lcssa = phi ptr [ null, %.preheader ], [ %.1, %44 ]
  %50 = getelementptr inbounds nuw i8, ptr %21, i64 24
  %51 = load i32, ptr %50, align 8
  %52 = add i32 %51, -1
  store i32 %52, ptr %50, align 8
  %53 = load i32, ptr @Mode, align 4
  %54 = icmp eq i32 %53, 0
  br i1 %54, label %RelationDecrementReferenceCount.exit.i, label %55

55:                                               ; preds = %._crit_edge
  %56 = load ptr, ptr @CurrentResourceOwner, align 8
  %57 = ptrtoint ptr %21 to i64
  tail call void @ResourceOwnerForget(ptr noundef %56, i64 noundef %57, ptr noundef nonnull @relref_resowner_desc) #13
  %.pr.i = load i32, ptr %50, align 8
  br label %RelationDecrementReferenceCount.exit.i

RelationDecrementReferenceCount.exit.i:           ; preds = %55, %._crit_edge
  %58 = phi i32 [ %52, %._crit_edge ], [ %.pr.i, %55 ]
  %59 = icmp eq i32 %58, 0
  br i1 %59, label %60, label %RelationClose.exit

60:                                               ; preds = %RelationDecrementReferenceCount.exit.i
  %61 = getelementptr inbounds nuw i8, ptr %21, i64 160
  %62 = load ptr, ptr %61, align 8
  %.not.i.i = icmp eq ptr %62, null
  br i1 %.not.i.i, label %67, label %63

63:                                               ; preds = %60
  %64 = getelementptr inbounds nuw i8, ptr %62, i64 32
  %65 = load ptr, ptr %64, align 8
  %.not8.i.i = icmp eq ptr %65, null
  br i1 %.not8.i.i, label %67, label %66

66:                                               ; preds = %63
  tail call void @MemoryContextDeleteChildren(ptr noundef nonnull %62) #13
  br label %67

67:                                               ; preds = %66, %63, %60
  %68 = getelementptr inbounds nuw i8, ptr %21, i64 176
  %69 = load ptr, ptr %68, align 8
  %.not9.i.i = icmp eq ptr %69, null
  br i1 %.not9.i.i, label %RelationClose.exit, label %70

70:                                               ; preds = %67
  %71 = getelementptr inbounds nuw i8, ptr %69, i64 32
  %72 = load ptr, ptr %71, align 8
  %.not10.i.i = icmp eq ptr %72, null
  br i1 %.not10.i.i, label %RelationClose.exit, label %73

73:                                               ; preds = %70
  tail call void @MemoryContextDeleteChildren(ptr noundef nonnull %69) #13
  br label %RelationClose.exit

RelationClose.exit:                               ; preds = %RelationDecrementReferenceCount.exit.i, %67, %70, %73
  %74 = load ptr, ptr %2, align 8
  tail call void @bms_free(ptr noundef %74) #13
  store ptr null, ptr %2, align 8
  %75 = load ptr, ptr @CacheMemoryContext, align 8
  %76 = load ptr, ptr @CurrentMemoryContext, align 8
  store ptr %75, ptr @CurrentMemoryContext, align 8
  %77 = tail call ptr @bms_copy(ptr noundef %.025.lcssa) #13
  store ptr %77, ptr %2, align 8
  store ptr %76, ptr @CurrentMemoryContext, align 8
  br label %78

78:                                               ; preds = %RelationGetReplicaIndex.exit, %6, %RelationClose.exit, %4
  %.0 = phi ptr [ %5, %4 ], [ %.025.lcssa, %RelationClose.exit ], [ null, %6 ], [ null, %RelationGetReplicaIndex.exit ]
  ret ptr %.0
}